target datalayout = "e-m:e-p270:32:32-p271:32:32-p272:64:64-i64:64-i128:128-f80:128-n8:16:32:64-S128"
target triple = "x86_64-unknown-linux-gnu"

%"class.std::__cxx11::basic_string" = type { %"struct.std::__cxx11::basic_string<char>::_Alloc_hider", i64, %union.anon.0 }
%"struct.std::__cxx11::basic_string<char>::_Alloc_hider" = type { ptr }
%union.anon.0 = type { i64, [8 x i8] }
%"class.google::protobuf::internal::LogMessage" = type { i32, ptr, i32, %"class.std::__cxx11::basic_string" }
%"class.google::protobuf::internal::LogFinisher" = type { i8 }
%"class.google::protobuf::ForkPipeRunner" = type { %"class.google::protobuf::ConformanceTestRunner", i32, i32, i32, %"class.std::__cxx11::basic_string", %"class.std::vector", i8, %"class.std::__cxx11::basic_string" }
%"class.google::protobuf::ConformanceTestRunner" = type { ptr }
%"class.std::vector" = type { %"struct.std::_Vector_base" }
%"struct.std::_Vector_base" = type { %"struct.std::_Vector_base<std::__cxx11::basic_string<char>, std::allocator<std::__cxx11::basic_string<char>>>::_Vector_impl" }
%"struct.std::_Vector_base<std::__cxx11::basic_string<char>, std::allocator<std::__cxx11::basic_string<char>>>::_Vector_impl" = type { %"struct.std::_Vector_base<std::__cxx11::basic_string<char>, std::allocator<std::__cxx11::basic_string<char>>>::_Vector_impl_data" }
%"struct.std::_Vector_base<std::__cxx11::basic_string<char>, std::allocator<std::__cxx11::basic_string<char>>>::_Vector_impl_data" = type { ptr, ptr, ptr }

@.str.21 = private unnamed_addr constant [158 x i8] c"generated/home/dtcxzyw/WorkSpace/Projects/compilers/llvm-opt-benchmark/bench/yalantinglibs/yalantinglibs/src/struct_pb/conformance/conformance_test_runner.cc\00", align 1
@.str.50 = private unnamed_addr constant [36 x i8] c": error reading from test program: \00", align 1

; Function Attrs: mustprogress uwtable
define dso_local void @_ZN6google8protobuf14ForkPipeRunner11CheckedReadEiPvm(ptr noundef nonnull align 8 dereferenceable(120) %this, i32 noundef %fd, ptr noundef %buf, i64 noundef %len) #4 align 2 personality ptr @__gxx_personality_v0 {
entry:
  %this.addr = alloca ptr, align 8
  %fd.addr = alloca i32, align 4
  %buf.addr = alloca ptr, align 8
  %len.addr = alloca i64, align 8
  %ref.tmp = alloca %"class.google::protobuf::internal::LogMessage", align 8
  %exn.slot = alloca ptr, align 8
  %ehselector.slot = alloca i32, align 4
  %ref.tmp9 = alloca %"class.google::protobuf::internal::LogFinisher", align 1
  store ptr %this, ptr %this.addr, align 8
  store i32 %fd, ptr %fd.addr, align 4
  store ptr %buf, ptr %buf.addr, align 8
  store i64 %len, ptr %len.addr, align 8
  %this1 = load ptr, ptr %this.addr, align 8
  %0 = load i32, ptr %fd.addr, align 4
  %1 = load ptr, ptr %buf.addr, align 8
  %2 = load i64, ptr %len.addr, align 8
  %call = call noundef zeroext i1 @_ZN6google8protobuf14ForkPipeRunner7TryReadEiPvm(ptr noundef nonnull align 8 dereferenceable(120) %this1, i32 noundef %0, ptr noundef %1, i64 noundef %2)
  br i1 %call, label %if.end, label %if.then

if.then:                                          ; preds = %entry
  call void @_ZN6google8protobuf8internal10LogMessageC1ENS0_8LogLevelEPKci(ptr noundef nonnull align 8 dereferenceable(56) %ref.tmp, i32 noundef 3, ptr noundef @.str.21, i32 noundef 400)
  %current_test_name_ = getelementptr inbounds %"class.google::protobuf::ForkPipeRunner", ptr %this1, i32 0, i32 7
  %call2 = invoke noundef nonnull align 8 dereferenceable(56) ptr @_ZN6google8protobuf8internal10LogMessagelsERKNSt7__cxx1112basic_stringIcSt11char_traitsIcESaIcEEE(ptr noundef nonnull align 8 dereferenceable(56) %ref.tmp, ptr noundef nonnull align 8 dereferenceable(32) %current_test_name_)
          to label %invoke.cont unwind label %lpad

invoke.cont:                                      ; preds = %if.then
  %call4 = invoke noundef nonnull align 8 dereferenceable(56) ptr @_ZN6google8protobuf8internal10LogMessagelsEPKc(ptr noundef nonnull align 8 dereferenceable(56) %call2, ptr noundef @.str.50)
          to label %invoke.cont3 unwind label %lpad

invoke.cont3:                                     ; preds = %invoke.cont
  %call5 = call ptr @__errno_location() #20
  %3 = load i32, ptr %call5, align 4
  %call6 = call ptr @strerror(i32 noundef %3) #3
  %call8 = invoke noundef nonnull align 8 dereferenceable(56) ptr @_ZN6google8protobuf8internal10LogMessagelsEPKc(ptr noundef nonnull align 8 dereferenceable(56) %call4, ptr noundef %call6)
          to label %invoke.cont7 unwind label %lpad

invoke.cont7:                                     ; preds = %invoke.cont3
  invoke void @_ZN6google8protobuf8internal11LogFinisheraSERNS1_10LogMessageE(ptr noundef nonnull align 1 dereferenceable(1) %ref.tmp9, ptr noundef nonnull align 8 dereferenceable(56) %call8)
          to label %invoke.cont10 unwind label %lpad

invoke.cont10:                                    ; preds = %invoke.cont7
  call void @_ZN6google8protobuf8internal10LogMessageD1Ev(ptr noundef nonnull align 8 dereferenceable(56) %ref.tmp) #3
  br label %if.end

lpad:                                             ; preds = %invoke.cont7, %invoke.cont3, %invoke.cont, %if.then
  %4 = landingpad { ptr, i32 }
          cleanup
  %5 = extractvalue { ptr, i32 } %4, 0
  store ptr %5, ptr %exn.slot, align 8
  %6 = extractvalue { ptr, i32 } %4, 1
  store i32 %6, ptr %ehselector.slot, align 4
  call void @_ZN6google8protobuf8internal10LogMessageD1Ev(ptr noundef nonnull align 8 dereferenceable(56) %ref.tmp) #3
  br label %eh.resume

if.end:                                           ; preds = %invoke.cont10, %entry
  ret void

eh.resume:                                        ; preds = %lpad
  %exn = load ptr, ptr %exn.slot, align 8
  %sel = load i32, ptr %ehselector.slot, align 4
  %lpad.val = insertvalue { ptr, i32 } poison, ptr %exn, 0
  %lpad.val11 = insertvalue { ptr, i32 } %lpad.val, i32 %sel, 1
  resume { ptr, i32 } %lpad.val11
}